; Function Attrs: nounwind uwtable
define hidden void @HMAC_CTX_cleanup(ptr noundef %ctx) local_unnamed_addr #0 {
entry:
  %i_ctx = getelementptr inbounds nuw i8, ptr %ctx, i64 40
  %call = tail call i32 @EVP_MD_CTX_cleanup(ptr noundef nonnull %i_ctx) #5
  %o_ctx = getelementptr inbounds nuw i8, ptr %ctx, i64 72
  %call1 = tail call i32 @EVP_MD_CTX_cleanup(ptr noundef nonnull %o_ctx) #5
  %md_ctx = getelementptr inbounds nuw i8, ptr %ctx, i64 8
  %call2 = tail call i32 @EVP_MD_CTX_cleanup(ptr noundef nonnull %md_ctx) #5
  tail call void @OPENSSL_cleanse(ptr noundef %ctx, i64 noundef 104) #5
  ret void
}